; Function Attrs: null_pointer_is_valid sspstrong uwtable
define void @reassembly_table_destroy(ptr noundef captures(none) initializes((16, 40)) %0) local_unnamed_addr #2 {
  %2 = getelementptr inbounds nuw i8, ptr %0, i64 16
  tail call void @llvm.memset.p0.i64(ptr noundef nonnull align 8 dereferenceable(24) %2, i8 0, i64 24, i1 false)
  %3 = load ptr, ptr %0, align 8
  %.not = icmp eq ptr %3, null
  br i1 %.not, label %7, label %4

4:                                                ; preds = %1
  %5 = tail call i32 @g_hash_table_foreach_remove(ptr noundef nonnull %3, ptr noundef nonnull @free_all_fragments, ptr noundef null)
  %6 = load ptr, ptr %0, align 8
  tail call void @g_hash_table_destroy(ptr noundef %6)
  store ptr null, ptr %0, align 8
  br label %7

7:                                                ; preds = %4, %1
  %8 = getelementptr inbounds nuw i8, ptr %0, i64 8
  %9 = load ptr, ptr %8, align 8
  %.not12 = icmp eq ptr %9, null
  br i1 %.not12, label %12, label %10

10:                                               ; preds = %7
  tail call void @g_hash_table_remove_all(ptr noundef nonnull %9)
  %11 = load ptr, ptr %8, align 8
  tail call void @g_hash_table_destroy(ptr noundef %11)
  store ptr null, ptr %8, align 8
  br label %12

12:                                               ; preds = %10, %7
  ret void
}